target datalayout = "e-m:e-p270:32:32-p271:32:32-p272:64:64-i64:64-i128:128-f80:128-n8:16:32:64-S128"
target triple = "x86_64-pc-linux-gnu"

%"class.Eigen::Matrix" = type { %"class.Eigen::PlainObjectBase" }
%"class.Eigen::PlainObjectBase" = type { %"class.Eigen::DenseStorage" }
%"class.Eigen::DenseStorage" = type { ptr, i64 }
%"class.ceres::internal::DenseIterativeRefiner" = type { ptr, i32, %"class.Eigen::Matrix", %"class.Eigen::Matrix" }

@_ZTISt9bad_alloc = external constant ptr
@_ZTVSt9bad_alloc = available_externally unnamed_addr constant { [5 x ptr] } { [5 x ptr] [ptr null, ptr @_ZTISt9bad_alloc, ptr @_ZNSt9bad_allocD1Ev, ptr @_ZNSt9bad_allocD0Ev, ptr @_ZNKSt9bad_alloc4whatEv] }, align 8
@_ZTVSt9exception = available_externally unnamed_addr constant { [5 x ptr] } { [5 x ptr] [ptr null, ptr @_ZTISt9exception, ptr @_ZNSt9exceptionD1Ev, ptr @_ZNSt9exceptionD0Ev, ptr @_ZNKSt9exception4whatEv] }, align 8

; Function Attrs: mustprogress nounwind uwtable
define linkonce_odr hidden void @_ZNSt9exceptionC2Ev(ptr noundef nonnull align 8 dereferenceable(8) %0) unnamed_addr #1 comdat align 2 {
  %2 = alloca ptr, align 8
  store ptr %0, ptr %2, align 8, !tbaa !100
  %3 = load ptr, ptr %2, align 8
  store ptr getelementptr inbounds inrange(-16, 24) ({ [5 x ptr] }, ptr @_ZTVSt9exception, i32 0, i32 0, i32 2), ptr %3, align 8, !tbaa !18
  ret void
}

; Function Attrs: inlinehint mustprogress nounwind uwtable
define linkonce_odr hidden void @_ZN5Eigen8internal28check_that_malloc_is_allowedEv() #5 comdat {
  ret void
}

; Function Attrs: mustprogress nounwind uwtable
define linkonce_odr hidden void @_ZNSt9bad_allocC2Ev(ptr noundef nonnull align 8 dereferenceable(8) %0) unnamed_addr #1 comdat align 2 {
  %2 = alloca ptr, align 8
  store ptr %0, ptr %2, align 8, !tbaa !98
  %3 = load ptr, ptr %2, align 8
  call void @_ZNSt9exceptionC2Ev(ptr noundef nonnull align 8 dereferenceable(8) %3) #19
  store ptr getelementptr inbounds inrange(-16, 24) ({ [5 x ptr] }, ptr @_ZTVSt9bad_alloc, i32 0, i32 0, i32 2), ptr %3, align 8, !tbaa !18
  ret void
}

; Function Attrs: inlinehint mustprogress uwtable
define linkonce_odr hidden noundef ptr @_ZN5Eigen8internal14aligned_mallocEm(i64 noundef %0) #4 comdat {
  %2 = alloca i64, align 8
  %3 = alloca ptr, align 8
  store i64 %0, ptr %2, align 8, !tbaa !31
  call void @_ZN5Eigen8internal28check_that_malloc_is_allowedEv()
  call void @llvm.lifetime.start.p0(i64 8, ptr %3) #19
  %4 = load i64, ptr %2, align 8, !tbaa !31
  %5 = call noalias ptr @malloc(i64 noundef %4) #23
  store ptr %5, ptr %3, align 8, !tbaa !78
  %6 = load ptr, ptr %3, align 8, !tbaa !78
  %7 = icmp ne ptr %6, null
  br i1 %7, label %12, label %8

8:                                                ; preds = %1
  %9 = load i64, ptr %2, align 8, !tbaa !31
  %10 = icmp ne i64 %9, 0
  br i1 %10, label %11, label %12

11:                                               ; preds = %8
  call void @_ZN5Eigen8internal19throw_std_bad_allocEv()
  br label %12

12:                                               ; preds = %11, %8, %1
  %13 = load ptr, ptr %3, align 8, !tbaa !78
  call void @llvm.lifetime.end.p0(i64 8, ptr %3) #19
  ret ptr %13
}

; Function Attrs: inlinehint mustprogress uwtable
define linkonce_odr hidden void @_ZN5Eigen8internal19throw_std_bad_allocEv() #4 comdat {
  %1 = call ptr @__cxa_allocate_exception(i64 8) #19
  call void @_ZNSt9bad_allocC2Ev(ptr noundef nonnull align 8 dereferenceable(8) %1) #19
  call void @__cxa_throw(ptr %1, ptr @_ZTISt9bad_alloc, ptr @_ZNSt9bad_allocD1Ev) #22
  unreachable
}

; Function Attrs: inlinehint mustprogress nounwind uwtable
define linkonce_odr hidden void @_ZN5Eigen8internal12aligned_freeEPv(ptr noundef %0) #5 comdat {
  %2 = alloca ptr, align 8
  store ptr %0, ptr %2, align 8, !tbaa !78
  %3 = load ptr, ptr %2, align 8, !tbaa !78
  call void @free(ptr noundef %3) #19
  ret void
}

; Function Attrs: inlinehint mustprogress uwtable
define linkonce_odr hidden noundef ptr @_ZN5Eigen8internal26conditional_aligned_mallocILb1EEEPvm(i64 noundef %0) #4 comdat {
  %2 = alloca i64, align 8
  store i64 %0, ptr %2, align 8, !tbaa !31
  %3 = load i64, ptr %2, align 8, !tbaa !31
  %4 = call noundef ptr @_ZN5Eigen8internal14aligned_mallocEm(i64 noundef %3)
  ret ptr %4
}

; Function Attrs: alwaysinline mustprogress uwtable
define linkonce_odr hidden void @_ZN5Eigen8internal23check_size_for_overflowIdEEvm(i64 noundef %0) #9 comdat {
  %2 = alloca i64, align 8
  store i64 %0, ptr %2, align 8, !tbaa !31
  %3 = load i64, ptr %2, align 8, !tbaa !31
  %4 = icmp ugt i64 %3, 2305843009213693951
  br i1 %4, label %5, label %6

5:                                                ; preds = %1
  call void @_ZN5Eigen8internal19throw_std_bad_allocEv()
  br label %6

6:                                                ; preds = %5, %1
  ret void
}

; Function Attrs: inlinehint mustprogress uwtable
define linkonce_odr hidden void @_ZN5Eigen8internal24conditional_aligned_freeILb1EEEvPv(ptr noundef %0) #4 comdat {
  %2 = alloca ptr, align 8
  store ptr %0, ptr %2, align 8, !tbaa !78
  %3 = load ptr, ptr %2, align 8, !tbaa !78
  call void @_ZN5Eigen8internal12aligned_freeEPv(ptr noundef %3)
  ret void
}

; Function Attrs: inlinehint mustprogress uwtable
define linkonce_odr hidden noundef ptr @_ZN5Eigen8internal28conditional_aligned_new_autoIdLb1EEEPT_m(i64 noundef %0) #4 comdat {
  %2 = alloca ptr, align 8
  %3 = alloca i64, align 8
  %4 = alloca ptr, align 8
  store i64 %0, ptr %3, align 8, !tbaa !31
  %5 = load i64, ptr %3, align 8, !tbaa !31
  %6 = icmp eq i64 %5, 0
  br i1 %6, label %7, label %8

7:                                                ; preds = %1
  store ptr null, ptr %2, align 8
  br label %14

8:                                                ; preds = %1
  %9 = load i64, ptr %3, align 8, !tbaa !31
  call void @_ZN5Eigen8internal23check_size_for_overflowIdEEvm(i64 noundef %9)
  call void @llvm.lifetime.start.p0(i64 8, ptr %4) #19
  %10 = load i64, ptr %3, align 8, !tbaa !31
  %11 = mul i64 8, %10
  %12 = call noundef ptr @_ZN5Eigen8internal26conditional_aligned_mallocILb1EEEPvm(i64 noundef %11)
  store ptr %12, ptr %4, align 8, !tbaa !34
  %13 = load ptr, ptr %4, align 8, !tbaa !34
  store ptr %13, ptr %2, align 8
  call void @llvm.lifetime.end.p0(i64 8, ptr %4) #19
  br label %14

14:                                               ; preds = %8, %7
  %15 = load ptr, ptr %2, align 8
  ret ptr %15
}

; Function Attrs: inlinehint mustprogress uwtable
define linkonce_odr hidden void @_ZN5Eigen8internal31conditional_aligned_delete_autoIdLb1EEEvPT_m(ptr noundef %0, i64 noundef %1) #4 comdat {
  %3 = alloca ptr, align 8
  %4 = alloca i64, align 8
  store ptr %0, ptr %3, align 8, !tbaa !34
  store i64 %1, ptr %4, align 8, !tbaa !31
  %5 = load ptr, ptr %3, align 8, !tbaa !34
  call void @_ZN5Eigen8internal24conditional_aligned_freeILb1EEEvPv(ptr noundef %5)
  ret void
}

; Function Attrs: inlinehint mustprogress uwtable
define linkonce_odr hidden void @_ZN5Eigen12DenseStorageIdLin1ELin1ELi1ELi0EE6resizeElll(ptr noundef nonnull align 8 dereferenceable(16) %0, i64 noundef %1, i64 noundef %2, i64 noundef %3) #4 comdat align 2 {
  %5 = alloca ptr, align 8
  %6 = alloca i64, align 8
  %7 = alloca i64, align 8
  %8 = alloca i64, align 8
  store ptr %0, ptr %5, align 8, !tbaa !74
  store i64 %1, ptr %6, align 8, !tbaa !31
  store i64 %2, ptr %7, align 8, !tbaa !31
  store i64 %3, ptr %8, align 8, !tbaa !31
  %9 = load ptr, ptr %5, align 8
  %10 = load i64, ptr %6, align 8, !tbaa !31
  %11 = getelementptr inbounds nuw %"class.Eigen::DenseStorage", ptr %9, i32 0, i32 1
  %12 = load i64, ptr %11, align 8, !tbaa !77
  %13 = mul nsw i64 %12, 1
  %14 = icmp ne i64 %10, %13
  br i1 %14, label %15, label %30

15:                                               ; preds = %4
  %16 = getelementptr inbounds nuw %"class.Eigen::DenseStorage", ptr %9, i32 0, i32 0
  %17 = load ptr, ptr %16, align 8, !tbaa !76
  %18 = getelementptr inbounds nuw %"class.Eigen::DenseStorage", ptr %9, i32 0, i32 1
  %19 = load i64, ptr %18, align 8, !tbaa !77
  %20 = mul nsw i64 1, %19
  call void @_ZN5Eigen8internal31conditional_aligned_delete_autoIdLb1EEEvPT_m(ptr noundef %17, i64 noundef %20)
  %21 = load i64, ptr %6, align 8, !tbaa !31
  %22 = icmp sgt i64 %21, 0
  br i1 %22, label %23, label %27

23:                                               ; preds = %15
  %24 = load i64, ptr %6, align 8, !tbaa !31
  %25 = call noundef ptr @_ZN5Eigen8internal28conditional_aligned_new_autoIdLb1EEEPT_m(i64 noundef %24)
  %26 = getelementptr inbounds nuw %"class.Eigen::DenseStorage", ptr %9, i32 0, i32 0
  store ptr %25, ptr %26, align 8, !tbaa !76
  br label %29

27:                                               ; preds = %15
  %28 = getelementptr inbounds nuw %"class.Eigen::DenseStorage", ptr %9, i32 0, i32 0
  store ptr null, ptr %28, align 8, !tbaa !76
  br label %29

29:                                               ; preds = %27, %23
  br label %30

30:                                               ; preds = %29, %4
  %31 = load i64, ptr %7, align 8, !tbaa !31
  %32 = getelementptr inbounds nuw %"class.Eigen::DenseStorage", ptr %9, i32 0, i32 1
  store i64 %31, ptr %32, align 8, !tbaa !77
  ret void
}

; Function Attrs: inlinehint mustprogress uwtable
define linkonce_odr hidden void @_ZN5Eigen15PlainObjectBaseINS_6MatrixIdLin1ELi1ELi0ELin1ELi1EEEE6resizeEl(ptr noundef nonnull align 8 dereferenceable(16) %0, i64 noundef %1) #4 comdat align 2 {
  %3 = alloca ptr, align 8
  %4 = alloca i64, align 8
  store ptr %0, ptr %3, align 8, !tbaa !29
  store i64 %1, ptr %4, align 8, !tbaa !31
  %5 = load ptr, ptr %3, align 8
  %6 = getelementptr inbounds nuw %"class.Eigen::PlainObjectBase", ptr %5, i32 0, i32 0
  %7 = load i64, ptr %4, align 8, !tbaa !31
  %8 = load i64, ptr %4, align 8, !tbaa !31
  call void @_ZN5Eigen12DenseStorageIdLin1ELin1ELi1ELi0EE6resizeElll(ptr noundef nonnull align 8 dereferenceable(16) %6, i64 noundef %7, i64 noundef %8, i64 noundef 1)
  ret void
}

; Function Attrs: mustprogress uwtable
define hidden void @_ZN5ceres8internal21DenseIterativeRefiner8AllocateEi(ptr noundef nonnull align 8 dereferenceable(48) %0, i32 noundef %1) #3 align 2 {
  %3 = alloca ptr, align 8
  %4 = alloca i32, align 4
  store ptr %0, ptr %3, align 8, !tbaa !59
  store i32 %1, ptr %4, align 4, !tbaa !16
  %5 = load ptr, ptr %3, align 8
  %6 = getelementptr inbounds nuw %"class.ceres::internal::DenseIterativeRefiner", ptr %5, i32 0, i32 2
  %7 = load i32, ptr %4, align 4, !tbaa !16
  %8 = sext i32 %7 to i64
  call void @_ZN5Eigen15PlainObjectBaseINS_6MatrixIdLin1ELi1ELi0ELin1ELi1EEEE6resizeEl(ptr noundef nonnull align 8 dereferenceable(16) %6, i64 noundef %8)
  %9 = getelementptr inbounds nuw %"class.ceres::internal::DenseIterativeRefiner", ptr %5, i32 0, i32 3
  %10 = load i32, ptr %4, align 4, !tbaa !16
  %11 = sext i32 %10 to i64
  call void @_ZN5Eigen15PlainObjectBaseINS_6MatrixIdLin1ELi1ELi0ELin1ELi1EEEE6resizeEl(ptr noundef nonnull align 8 dereferenceable(16) %9, i64 noundef %11)
  ret void
}