; Function Attrs: mustprogress uwtable
define hidden void @_ZN5ceres8internal21DenseIterativeRefiner8AllocateEi(ptr noundef nonnull align 8 captures(none) dereferenceable(48) %0, i32 noundef %1) local_unnamed_addr #4 align 2 {
  %3 = getelementptr inbounds nuw i8, ptr %0, i64 16
  %4 = sext i32 %1 to i64
  %5 = getelementptr inbounds nuw i8, ptr %0, i64 24
  %6 = load i64, ptr %5, align 8, !tbaa !17
  %.not.i.i = icmp eq i64 %6, %4
  br i1 %.not.i.i, label %_ZN5Eigen15PlainObjectBaseINS_6MatrixIdLin1ELi1ELi0ELin1ELi1EEEE6resizeEl.exit, label %7

7:                                                ; preds = %2
  %8 = load ptr, ptr %3, align 8, !tbaa !16
  tail call void @free(ptr noundef %8) #19
  %9 = icmp sgt i32 %1, 0
  br i1 %9, label %_ZN5Eigen8internal23check_size_for_overflowIdEEvm.exit.i.i.i, label %.sink.split.i.i

_ZN5Eigen8internal23check_size_for_overflowIdEEvm.exit.i.i.i: ; preds = %7
  %10 = shl nuw nsw i64 %4, 3
  %11 = tail call noalias ptr @malloc(i64 noundef %10) #21
  %12 = icmp eq ptr %11, null
  br i1 %12, label %13, label %.sink.split.i.i

13:                                               ; preds = %_ZN5Eigen8internal23check_size_for_overflowIdEEvm.exit.i.i.i
  %14 = tail call ptr @__cxa_allocate_exception(i64 8) #19
  store ptr getelementptr inbounds nuw inrange(-16, 24) (i8, ptr @_ZTVSt9bad_alloc, i64 16), ptr %14, align 8, !tbaa !3
  tail call void @__cxa_throw(ptr nonnull %14, ptr nonnull @_ZTISt9bad_alloc, ptr nonnull @_ZNSt9bad_allocD1Ev) #22
  unreachable

.sink.split.i.i:                                  ; preds = %_ZN5Eigen8internal23check_size_for_overflowIdEEvm.exit.i.i.i, %7
  %.sink.i.i = phi ptr [ %11, %_ZN5Eigen8internal23check_size_for_overflowIdEEvm.exit.i.i.i ], [ null, %7 ]
  store ptr %.sink.i.i, ptr %3, align 8, !tbaa !16
  br label %_ZN5Eigen15PlainObjectBaseINS_6MatrixIdLin1ELi1ELi0ELin1ELi1EEEE6resizeEl.exit

_ZN5Eigen15PlainObjectBaseINS_6MatrixIdLin1ELi1ELi0ELin1ELi1EEEE6resizeEl.exit: ; preds = %2, %.sink.split.i.i
  store i64 %4, ptr %5, align 8, !tbaa !17
  %15 = getelementptr inbounds nuw i8, ptr %0, i64 32
  %16 = getelementptr inbounds nuw i8, ptr %0, i64 40
  %17 = load i64, ptr %16, align 8, !tbaa !17
  %.not.i.i2 = icmp eq i64 %17, %4
  br i1 %.not.i.i2, label %_ZN5Eigen15PlainObjectBaseINS_6MatrixIdLin1ELi1ELi0ELin1ELi1EEEE6resizeEl.exit6, label %18

18:                                               ; preds = %_ZN5Eigen15PlainObjectBaseINS_6MatrixIdLin1ELi1ELi0ELin1ELi1EEEE6resizeEl.exit
  %19 = load ptr, ptr %15, align 8, !tbaa !16
  tail call void @free(ptr noundef %19) #19
  %20 = icmp sgt i32 %1, 0
  br i1 %20, label %_ZN5Eigen8internal23check_size_for_overflowIdEEvm.exit.i.i.i5, label %.sink.split.i.i3

_ZN5Eigen8internal23check_size_for_overflowIdEEvm.exit.i.i.i5: ; preds = %18
  %21 = shl nuw nsw i64 %4, 3
  %22 = tail call noalias ptr @malloc(i64 noundef %21) #21
  %23 = icmp eq ptr %22, null
  br i1 %23, label %24, label %.sink.split.i.i3

24:                                               ; preds = %_ZN5Eigen8internal23check_size_for_overflowIdEEvm.exit.i.i.i5
  %25 = tail call ptr @__cxa_allocate_exception(i64 8) #19
  store ptr getelementptr inbounds nuw inrange(-16, 24) (i8, ptr @_ZTVSt9bad_alloc, i64 16), ptr %25, align 8, !tbaa !3
  tail call void @__cxa_throw(ptr nonnull %25, ptr nonnull @_ZTISt9bad_alloc, ptr nonnull @_ZNSt9bad_allocD1Ev) #22
  unreachable

.sink.split.i.i3:                                 ; preds = %_ZN5Eigen8internal23check_size_for_overflowIdEEvm.exit.i.i.i5, %18
  %.sink.i.i4 = phi ptr [ %22, %_ZN5Eigen8internal23check_size_for_overflowIdEEvm.exit.i.i.i5 ], [ null, %18 ]
  store ptr %.sink.i.i4, ptr %15, align 8, !tbaa !16
  br label %_ZN5Eigen15PlainObjectBaseINS_6MatrixIdLin1ELi1ELi0ELin1ELi1EEEE6resizeEl.exit6

_ZN5Eigen15PlainObjectBaseINS_6MatrixIdLin1ELi1ELi0ELin1ELi1EEEE6resizeEl.exit6: ; preds = %_ZN5Eigen15PlainObjectBaseINS_6MatrixIdLin1ELi1ELi0ELin1ELi1EEEE6resizeEl.exit, %.sink.split.i.i3
  store i64 %4, ptr %16, align 8, !tbaa !17
  ret void
}